target datalayout = "e-m:e-p270:32:32-p271:32:32-p272:64:64-i64:64-i128:128-f80:128-n8:16:32:64-S128"
target triple = "x86_64-pc-linux-gnu"

%"class.spacer::convex_closure" = type { %"struct.spacer::convex_closure::stats", ptr, %class.arith_util, %class.bv_util, i32, i8, i32, %"class.spacer::spacer_matrix", %class.ref_vector, %class.vector.1, %"class.spacer::spacer_arith_kernel", %class.ref_vector, %class.ref_vector, %class.ref_vector }
%"struct.spacer::convex_closure::stats" = type { i32, i32, %class.stopwatch }
%class.stopwatch = type <{ %"class.std::chrono::time_point", %"class.std::chrono::duration", i8, [7 x i8] }>
%"class.std::chrono::time_point" = type { %"class.std::chrono::duration" }
%"class.std::chrono::duration" = type { i64 }
%class.arith_util = type { ptr, ptr }
%class.bv_util = type { %class.bv_recognizers, ptr, ptr }
%class.bv_recognizers = type { i32 }
%"class.spacer::spacer_matrix" = type { i32, i32, %class.vector }
%class.vector = type { ptr }
%class.vector.1 = type { ptr }
%"class.spacer::spacer_arith_kernel" = type { ptr, %"struct.spacer::spacer_arith_kernel::stats", ptr, %"class.spacer::spacer_matrix", %class.vector.2, %class.scoped_ptr }
%"struct.spacer::spacer_arith_kernel::stats" = type { i32 }
%class.vector.2 = type { ptr }
%class.scoped_ptr = type { ptr }
%class.ref_vector = type { %class.ref_vector_core }
%class.ref_vector_core = type { %class.ref_manager_wrapper, %class.ptr_vector }
%class.ref_manager_wrapper = type { ptr }
%class.ptr_vector = type { %class.vector.0 }
%class.vector.0 = type { ptr }

; Function Attrs: mustprogress nounwind uwtable
define linkonce_odr hidden noundef i32 @_ZNK6vectorIjLb1EjE4sizeEv(ptr noundef nonnull align 8 dereferenceable(8) %0) #5 comdat align 2 {
  %2 = alloca i32, align 4
  %3 = alloca ptr, align 8
  store ptr %0, ptr %3, align 8, !tbaa !76
  %4 = load ptr, ptr %3, align 8
  %5 = getelementptr inbounds nuw %class.vector.2, ptr %4, i32 0, i32 0
  %6 = load ptr, ptr %5, align 8, !tbaa !79
  %7 = icmp eq ptr %6, null
  br i1 %7, label %8, label %9

8:                                                ; preds = %1
  store i32 0, ptr %2, align 4
  br label %14

9:                                                ; preds = %1
  %10 = getelementptr inbounds nuw %class.vector.2, ptr %4, i32 0, i32 0
  %11 = load ptr, ptr %10, align 8, !tbaa !79
  %12 = getelementptr inbounds i32, ptr %11, i64 -1
  %13 = load i32, ptr %12, align 4, !tbaa !61
  store i32 %13, ptr %2, align 4
  br label %14

14:                                               ; preds = %9, %8
  %15 = load i32, ptr %2, align 4
  ret i32 %15
}

; Function Attrs: mustprogress nounwind uwtable
define linkonce_odr hidden noundef i32 @_ZNK6spacer13spacer_matrix8num_rowsEv(ptr noundef nonnull align 8 dereferenceable(16) %0) #5 comdat align 2 {
  %2 = alloca ptr, align 8
  store ptr %0, ptr %2, align 8, !tbaa !55
  %3 = load ptr, ptr %2, align 8
  %4 = getelementptr inbounds nuw %"class.spacer::spacer_matrix", ptr %3, i32 0, i32 0
  %5 = load i32, ptr %4, align 8, !tbaa !63
  ret i32 %5
}

; Function Attrs: mustprogress nounwind uwtable
define linkonce_odr hidden noundef nonnull align 1 dereferenceable(1) ptr @_ZN6vectorIbLb1EjEixEj(ptr noundef nonnull align 8 dereferenceable(8) %0, i32 noundef %1) #5 comdat align 2 {
  %3 = alloca ptr, align 8
  %4 = alloca i32, align 4
  store ptr %0, ptr %3, align 8, !tbaa !50
  store i32 %1, ptr %4, align 4, !tbaa !61
  %5 = load ptr, ptr %3, align 8
  %6 = getelementptr inbounds nuw %class.vector.1, ptr %5, i32 0, i32 0
  %7 = load ptr, ptr %6, align 8, !tbaa !52
  %8 = load i32, ptr %4, align 4, !tbaa !61
  %9 = zext i32 %8 to i64
  %10 = getelementptr inbounds nuw i8, ptr %7, i64 %9
  ret ptr %10
}

; Function Attrs: mustprogress nounwind uwtable
define linkonce_odr hidden noundef i32 @_ZNK6vectorIbLb1EjE4sizeEv(ptr noundef nonnull align 8 dereferenceable(8) %0) #5 comdat align 2 {
  %2 = alloca i32, align 4
  %3 = alloca ptr, align 8
  store ptr %0, ptr %3, align 8, !tbaa !50
  %4 = load ptr, ptr %3, align 8
  %5 = getelementptr inbounds nuw %class.vector.1, ptr %4, i32 0, i32 0
  %6 = load ptr, ptr %5, align 8, !tbaa !52
  %7 = icmp eq ptr %6, null
  br i1 %7, label %8, label %9

8:                                                ; preds = %1
  store i32 0, ptr %2, align 4
  br label %14

9:                                                ; preds = %1
  %10 = getelementptr inbounds nuw %class.vector.1, ptr %4, i32 0, i32 0
  %11 = load ptr, ptr %10, align 8, !tbaa !52
  %12 = getelementptr inbounds i32, ptr %11, i64 -1
  %13 = load i32, ptr %12, align 4, !tbaa !61
  store i32 %13, ptr %2, align 4
  br label %14

14:                                               ; preds = %9, %8
  %15 = load i32, ptr %2, align 4
  ret i32 %15
}

; Function Attrs: mustprogress nounwind uwtable
define linkonce_odr hidden noundef ptr @_ZNK6vectorIjLb1EjE3endEv(ptr noundef nonnull align 8 dereferenceable(8) %0) #5 comdat align 2 {
  %2 = alloca ptr, align 8
  store ptr %0, ptr %2, align 8, !tbaa !76
  %3 = load ptr, ptr %2, align 8
  %4 = getelementptr inbounds nuw %class.vector.2, ptr %3, i32 0, i32 0
  %5 = load ptr, ptr %4, align 8, !tbaa !79
  %6 = call noundef i32 @_ZNK6vectorIjLb1EjE4sizeEv(ptr noundef nonnull align 8 dereferenceable(8) %3)
  %7 = zext i32 %6 to i64
  %8 = getelementptr inbounds nuw i32, ptr %5, i64 %7
  ret ptr %8
}

; Function Attrs: mustprogress nounwind uwtable
define linkonce_odr hidden noundef ptr @_ZNK6vectorIjLb1EjE5beginEv(ptr noundef nonnull align 8 dereferenceable(8) %0) #5 comdat align 2 {
  %2 = alloca ptr, align 8
  store ptr %0, ptr %2, align 8, !tbaa !76
  %3 = load ptr, ptr %2, align 8
  %4 = getelementptr inbounds nuw %class.vector.2, ptr %3, i32 0, i32 0
  %5 = load ptr, ptr %4, align 8, !tbaa !79
  ret ptr %5
}

; Function Attrs: mustprogress nounwind uwtable
define linkonce_odr hidden noundef nonnull align 8 dereferenceable(8) ptr @_ZNK6spacer19spacer_arith_kernel14get_basic_varsEv(ptr noundef nonnull align 8 dereferenceable(56) %0) #5 comdat align 2 {
  %2 = alloca ptr, align 8
  store ptr %0, ptr %2, align 8, !tbaa !53
  %3 = load ptr, ptr %2, align 8
  %4 = getelementptr inbounds nuw %"class.spacer::spacer_arith_kernel", ptr %3, i32 0, i32 4
  ret ptr %4
}

; Function Attrs: mustprogress nounwind uwtable
define linkonce_odr hidden noundef nonnull align 8 dereferenceable(16) ptr @_ZNK6spacer19spacer_arith_kernel10get_kernelEv(ptr noundef nonnull align 8 dereferenceable(56) %0) #5 comdat align 2 {
  %2 = alloca ptr, align 8
  store ptr %0, ptr %2, align 8, !tbaa !53
  %3 = load ptr, ptr %2, align 8
  %4 = getelementptr inbounds nuw %"class.spacer::spacer_arith_kernel", ptr %3, i32 0, i32 3
  ret ptr %4
}

; Function Attrs: mustprogress uwtable
define hidden noundef i32 @_ZN6spacer14convex_closure6reduceEv(ptr noundef nonnull align 8 dereferenceable(240) %0) #4 align 2 {
  %2 = alloca i32, align 4
  %3 = alloca ptr, align 8
  %4 = alloca i8, align 1
  %5 = alloca i32, align 4
  %6 = alloca ptr, align 8
  %7 = alloca ptr, align 8
  %8 = alloca ptr, align 8
  %9 = alloca ptr, align 8
  %10 = alloca i32, align 4
  store ptr %0, ptr %3, align 8, !tbaa !3
  %11 = load ptr, ptr %3, align 8
  %12 = getelementptr inbounds nuw %"class.spacer::convex_closure", ptr %11, i32 0, i32 6
  %13 = load i32, ptr %12, align 8, !tbaa !45
  %14 = icmp ule i32 %13, 1
  br i1 %14, label %15, label %18

15:                                               ; preds = %1
  %16 = getelementptr inbounds nuw %"class.spacer::convex_closure", ptr %11, i32 0, i32 6
  %17 = load i32, ptr %16, align 8, !tbaa !45
  store i32 %17, ptr %2, align 4
  br label %63

18:                                               ; preds = %1
  call void @llvm.lifetime.start.p0(i64 1, ptr %4) #3
  %19 = getelementptr inbounds nuw %"class.spacer::convex_closure", ptr %11, i32 0, i32 10
  %20 = call noundef zeroext i1 @_ZN6spacer19spacer_arith_kernel14compute_kernelEv(ptr noundef nonnull align 8 dereferenceable(56) %19)
  %21 = zext i1 %20 to i8
  store i8 %21, ptr %4, align 1, !tbaa !62
  %22 = load i8, ptr %4, align 1, !tbaa !62, !range !66, !noundef !67
  %23 = trunc i8 %22 to i1
  br i1 %23, label %27, label %24

24:                                               ; preds = %18
  %25 = getelementptr inbounds nuw %"class.spacer::convex_closure", ptr %11, i32 0, i32 6
  %26 = load i32, ptr %25, align 8, !tbaa !45
  store i32 %26, ptr %2, align 4
  store i32 1, ptr %5, align 4
  br label %62

27:                                               ; preds = %18
  call void @llvm.lifetime.start.p0(i64 8, ptr %6) #3
  %28 = getelementptr inbounds nuw %"class.spacer::convex_closure", ptr %11, i32 0, i32 10
  %29 = call noundef nonnull align 8 dereferenceable(16) ptr @_ZNK6spacer19spacer_arith_kernel10get_kernelEv(ptr noundef nonnull align 8 dereferenceable(56) %28)
  store ptr %29, ptr %6, align 8, !tbaa !55
  call void @llvm.lifetime.start.p0(i64 8, ptr %7) #3
  %30 = getelementptr inbounds nuw %"class.spacer::convex_closure", ptr %11, i32 0, i32 10
  %31 = call noundef nonnull align 8 dereferenceable(8) ptr @_ZNK6spacer19spacer_arith_kernel14get_basic_varsEv(ptr noundef nonnull align 8 dereferenceable(56) %30)
  store ptr %31, ptr %7, align 8, !tbaa !76
  call void @llvm.lifetime.start.p0(i64 8, ptr %8) #3
  %32 = load ptr, ptr %7, align 8, !tbaa !76
  %33 = call noundef ptr @_ZNK6vectorIjLb1EjE5beginEv(ptr noundef nonnull align 8 dereferenceable(8) %32)
  store ptr %33, ptr %8, align 8, !tbaa !78
  call void @llvm.lifetime.start.p0(i64 8, ptr %9) #3
  %34 = load ptr, ptr %7, align 8, !tbaa !76
  %35 = call noundef ptr @_ZNK6vectorIjLb1EjE3endEv(ptr noundef nonnull align 8 dereferenceable(8) %34)
  store ptr %35, ptr %9, align 8, !tbaa !78
  br label %36

36:                                               ; preds = %53, %27
  %37 = load ptr, ptr %8, align 8, !tbaa !78
  %38 = load ptr, ptr %9, align 8, !tbaa !78
  %39 = icmp ne ptr %37, %38
  br i1 %39, label %41, label %40

40:                                               ; preds = %36
  store i32 2, ptr %5, align 4
  call void @llvm.lifetime.end.p0(i64 8, ptr %9) #3
  call void @llvm.lifetime.end.p0(i64 8, ptr %8) #3
  call void @llvm.lifetime.end.p0(i64 8, ptr %7) #3
  br label %56

41:                                               ; preds = %36
  call void @llvm.lifetime.start.p0(i64 4, ptr %10) #3
  %42 = load ptr, ptr %8, align 8, !tbaa !78
  %43 = load i32, ptr %42, align 4, !tbaa !61
  store i32 %43, ptr %10, align 4, !tbaa !61
  %44 = load i32, ptr %10, align 4, !tbaa !61
  %45 = getelementptr inbounds nuw %"class.spacer::convex_closure", ptr %11, i32 0, i32 9
  %46 = call noundef i32 @_ZNK6vectorIbLb1EjE4sizeEv(ptr noundef nonnull align 8 dereferenceable(8) %45)
  %47 = icmp ult i32 %44, %46
  br i1 %47, label %48, label %52

48:                                               ; preds = %41
  %49 = getelementptr inbounds nuw %"class.spacer::convex_closure", ptr %11, i32 0, i32 9
  %50 = load i32, ptr %10, align 4, !tbaa !61
  %51 = call noundef nonnull align 1 dereferenceable(1) ptr @_ZN6vectorIbLb1EjEixEj(ptr noundef nonnull align 8 dereferenceable(8) %49, i32 noundef %50)
  store i8 1, ptr %51, align 1, !tbaa !62
  br label %52

52:                                               ; preds = %48, %41
  call void @llvm.lifetime.end.p0(i64 4, ptr %10) #3
  br label %53

53:                                               ; preds = %52
  %54 = load ptr, ptr %8, align 8, !tbaa !78
  %55 = getelementptr inbounds nuw i32, ptr %54, i32 1
  store ptr %55, ptr %8, align 8, !tbaa !78
  br label %36

56:                                               ; preds = %40
  %57 = getelementptr inbounds nuw %"class.spacer::convex_closure", ptr %11, i32 0, i32 6
  %58 = load i32, ptr %57, align 8, !tbaa !45
  %59 = load ptr, ptr %6, align 8, !tbaa !55
  %60 = call noundef i32 @_ZNK6spacer13spacer_matrix8num_rowsEv(ptr noundef nonnull align 8 dereferenceable(16) %59)
  %61 = sub i32 %58, %60
  store i32 %61, ptr %2, align 4
  store i32 1, ptr %5, align 4
  call void @llvm.lifetime.end.p0(i64 8, ptr %6) #3
  br label %62

62:                                               ; preds = %56, %24
  call void @llvm.lifetime.end.p0(i64 1, ptr %4) #3
  br label %63

63:                                               ; preds = %62, %15
  %64 = load i32, ptr %2, align 4
  ret i32 %64
}