; Function Attrs: mustprogress uwtable
define hidden noundef i32 @_ZN6spacer14convex_closure6reduceEv(ptr noundef nonnull align 8 dereferenceable(240) %0) local_unnamed_addr #3 align 2 {
  %2 = getelementptr inbounds nuw i8, ptr %0, i64 88
  %3 = load i32, ptr %2, align 8, !tbaa !43
  %4 = icmp ult i32 %3, 2
  br i1 %4, label %33, label %5

5:                                                ; preds = %1
  %6 = getelementptr inbounds nuw i8, ptr %0, i64 136
  %7 = tail call noundef zeroext i1 @_ZN6spacer19spacer_arith_kernel14compute_kernelEv(ptr noundef nonnull align 8 dereferenceable(56) %6)
  br i1 %7, label %10, label %8

8:                                                ; preds = %5
  %9 = load i32, ptr %2, align 8, !tbaa !43
  br label %33

10:                                               ; preds = %5
  %11 = getelementptr inbounds nuw i8, ptr %0, i64 160
  %12 = getelementptr inbounds nuw i8, ptr %0, i64 176
  %13 = load ptr, ptr %12, align 8, !tbaa !58
  %14 = icmp eq ptr %13, null
  br i1 %14, label %._crit_edge, label %_ZNK6vectorIjLb1EjE3endEv.exit

_ZNK6vectorIjLb1EjE3endEv.exit:                   ; preds = %10
  %15 = getelementptr inbounds i8, ptr %13, i64 -4
  %16 = load i32, ptr %15, align 4, !tbaa !50
  %17 = zext i32 %16 to i64
  %18 = getelementptr inbounds nuw i32, ptr %13, i64 %17
  %.not15 = icmp eq i32 %16, 0
  br i1 %.not15, label %._crit_edge, label %.lr.ph

.lr.ph:                                           ; preds = %_ZNK6vectorIjLb1EjE3endEv.exit
  %19 = getelementptr inbounds nuw i8, ptr %0, i64 128
  %20 = load ptr, ptr %19, align 8, !tbaa !60
  %21 = icmp eq ptr %20, null
  br i1 %21, label %._crit_edge, label %.lr.ph.split

.lr.ph.split:                                     ; preds = %.lr.ph
  %22 = getelementptr inbounds i8, ptr %20, i64 -4
  %23 = load i32, ptr %22, align 4, !tbaa !50
  br label %_ZNK6vectorIbLb1EjE4sizeEv.exit

._crit_edge:                                      ; preds = %_ZNK6vectorIbLb1EjE4sizeEv.exit.thread, %10, %.lr.ph, %_ZNK6vectorIjLb1EjE3endEv.exit
  %24 = load i32, ptr %2, align 8, !tbaa !43
  %25 = load i32, ptr %11, align 8, !tbaa !61
  %26 = sub i32 %24, %25
  br label %33

_ZNK6vectorIbLb1EjE4sizeEv.exit:                  ; preds = %.lr.ph.split, %_ZNK6vectorIbLb1EjE4sizeEv.exit.thread
  %.01116 = phi ptr [ %13, %.lr.ph.split ], [ %32, %_ZNK6vectorIbLb1EjE4sizeEv.exit.thread ]
  %27 = load i32, ptr %.01116, align 4, !tbaa !50
  %28 = icmp ult i32 %27, %23
  br i1 %28, label %29, label %_ZNK6vectorIbLb1EjE4sizeEv.exit.thread

29:                                               ; preds = %_ZNK6vectorIbLb1EjE4sizeEv.exit
  %30 = zext i32 %27 to i64
  %31 = getelementptr inbounds nuw i8, ptr %20, i64 %30
  store i8 1, ptr %31, align 1, !tbaa !65
  br label %_ZNK6vectorIbLb1EjE4sizeEv.exit.thread

_ZNK6vectorIbLb1EjE4sizeEv.exit.thread:           ; preds = %29, %_ZNK6vectorIbLb1EjE4sizeEv.exit
  %32 = getelementptr inbounds nuw i8, ptr %.01116, i64 4
  %.not = icmp eq ptr %32, %18
  br i1 %.not, label %._crit_edge, label %_ZNK6vectorIbLb1EjE4sizeEv.exit

33:                                               ; preds = %8, %._crit_edge, %1
  %.0 = phi i32 [ %3, %1 ], [ %26, %._crit_edge ], [ %9, %8 ]
  ret i32 %.0
}